target datalayout = "e-m:e-p270:32:32-p271:32:32-p272:64:64-i64:64-i128:128-f80:128-n8:16:32:64-S128"
target triple = "x86_64-pc-linux-gnu"

%struct.H5G_fh_ud_cmp_t = type { ptr, ptr, ptr, ptr, i32 }
%struct.H5O_link_t = type { i32, i8, i64, i32, ptr, %union.anon }
%union.anon = type { %struct.H5O_link_ud_t }
%struct.H5O_link_ud_t = type { ptr, i64 }

@H5G_init_g = external global i8, align 1
@H5_libterm_g = external global i8, align 1
@.str.2 = private unnamed_addr constant [103 x i8] c"generated/home/dtcxzyw/WorkSpace/Projects/compilers/llvm-opt-benchmark/bench/hdf5/hdf5/src/H5Gbtree2.c\00", align 1
@__func__.H5G__dense_fh_name_cmp = private unnamed_addr constant [23 x i8] c"H5G__dense_fh_name_cmp\00", align 1
@H5E_SYM_g = external global i64, align 8
@H5E_CANTDECODE_g = external global i64, align 8
@.str.4 = private unnamed_addr constant [18 x i8] c"can't decode link\00", align 1
@H5E_CANTOPERATE_g = external global i64, align 8
@.str.5 = private unnamed_addr constant [27 x i8] c"link found callback failed\00", align 1

; Function Attrs: nounwind uwtable
define internal i32 @H5G__dense_fh_name_cmp(ptr noundef %0, i64 noundef %1, ptr noundef %2) #0 {
  %4 = alloca ptr, align 8
  %5 = alloca i64, align 8
  %6 = alloca ptr, align 8
  %7 = alloca ptr, align 8
  %8 = alloca ptr, align 8
  %9 = alloca i32, align 4
  %10 = alloca i8, align 1
  store ptr %0, ptr %4, align 8, !tbaa !3
  store i64 %1, ptr %5, align 8, !tbaa !42
  store ptr %2, ptr %6, align 8, !tbaa !3
  call void @llvm.lifetime.start.p0(i64 8, ptr %7) #7
  %11 = load ptr, ptr %6, align 8, !tbaa !3
  store ptr %11, ptr %7, align 8, !tbaa !59
  call void @llvm.lifetime.start.p0(i64 8, ptr %8) #7
  call void @llvm.lifetime.start.p0(i64 4, ptr %9) #7
  store i32 0, ptr %9, align 4, !tbaa !29
  call void @llvm.lifetime.start.p0(i64 1, ptr %10) #7
  store i8 0, ptr %10, align 1, !tbaa !11
  %12 = load i8, ptr @H5G_init_g, align 1, !tbaa !11, !range !13, !noundef !14
  %13 = trunc i8 %12 to i1
  br i1 %13, label %18, label %14

14:                                               ; preds = %3
  %15 = load i8, ptr @H5_libterm_g, align 1, !tbaa !11, !range !13, !noundef !14
  %16 = trunc i8 %15 to i1
  %17 = xor i1 %16, true
  br label %18

18:                                               ; preds = %14, %3
  %19 = phi i1 [ true, %3 ], [ %17, %14 ]
  %20 = xor i1 %19, true
  %21 = xor i1 %20, true
  %22 = zext i1 %21 to i32
  %23 = sext i32 %22 to i64
  %24 = call i64 @llvm.expect.i64(i64 %23, i64 1)
  %25 = icmp ne i64 %24, 0
  br i1 %25, label %26, label %106

26:                                               ; preds = %18
  %27 = load ptr, ptr %7, align 8, !tbaa !59
  %28 = getelementptr inbounds nuw %struct.H5G_fh_ud_cmp_t, ptr %27, i32 0, i32 0
  %29 = load ptr, ptr %28, align 8, !tbaa !32
  %30 = load i64, ptr %5, align 8, !tbaa !42
  %31 = load ptr, ptr %4, align 8, !tbaa !3
  %32 = call ptr @H5O_msg_decode(ptr noundef %29, ptr noundef null, i32 noundef 6, i64 noundef %30, ptr noundef %31)
  store ptr %32, ptr %8, align 8, !tbaa !61
  %33 = icmp eq ptr null, %32
  br i1 %33, label %34, label %53

34:                                               ; preds = %26
  br label %35

35:                                               ; preds = %34
  br label %36

36:                                               ; preds = %35
  br label %37

37:                                               ; preds = %36
  %38 = load i64, ptr @H5E_SYM_g, align 8, !tbaa !42
  %39 = load i64, ptr @H5E_CANTDECODE_g, align 8, !tbaa !42
  %40 = call i32 (ptr, ptr, i32, i64, i64, ptr, ...) @H5E_printf_stack(ptr noundef @.str.2, ptr noundef @__func__.H5G__dense_fh_name_cmp, i32 noundef 151, i64 noundef %38, i64 noundef %39, ptr noundef @.str.4)
  br label %41

41:                                               ; preds = %37
  br label %42

42:                                               ; preds = %41
  store i8 1, ptr %10, align 1, !tbaa !11
  %43 = load i8, ptr %10, align 1, !tbaa !11, !range !13, !noundef !14
  %44 = trunc i8 %43 to i1
  %45 = zext i1 %44 to i8
  store i8 %45, ptr %10, align 1, !tbaa !11
  br label %46

46:                                               ; preds = %42
  br label %47

47:                                               ; preds = %46
  br label %48

48:                                               ; preds = %47
  store i32 -1, ptr %9, align 4, !tbaa !29
  br label %105

49:                                               ; No predecessors!
  br label %50

50:                                               ; preds = %49
  br label %51

51:                                               ; preds = %50
  br label %52

52:                                               ; preds = %51
  br label %53

53:                                               ; preds = %52, %26
  %54 = load ptr, ptr %7, align 8, !tbaa !59
  %55 = getelementptr inbounds nuw %struct.H5G_fh_ud_cmp_t, ptr %54, i32 0, i32 1
  %56 = load ptr, ptr %55, align 8, !tbaa !35
  %57 = load ptr, ptr %8, align 8, !tbaa !61
  %58 = getelementptr inbounds nuw %struct.H5O_link_t, ptr %57, i32 0, i32 4
  %59 = load ptr, ptr %58, align 8, !tbaa !63
  %60 = call i32 @strcmp(ptr noundef %56, ptr noundef %59) #8
  %61 = load ptr, ptr %7, align 8, !tbaa !59
  %62 = getelementptr inbounds nuw %struct.H5G_fh_ud_cmp_t, ptr %61, i32 0, i32 4
  store i32 %60, ptr %62, align 8, !tbaa !40
  %63 = load ptr, ptr %7, align 8, !tbaa !59
  %64 = getelementptr inbounds nuw %struct.H5G_fh_ud_cmp_t, ptr %63, i32 0, i32 4
  %65 = load i32, ptr %64, align 8, !tbaa !40
  %66 = icmp eq i32 %65, 0
  br i1 %66, label %67, label %102

67:                                               ; preds = %53
  %68 = load ptr, ptr %7, align 8, !tbaa !59
  %69 = getelementptr inbounds nuw %struct.H5G_fh_ud_cmp_t, ptr %68, i32 0, i32 2
  %70 = load ptr, ptr %69, align 8, !tbaa !37
  %71 = icmp ne ptr %70, null
  br i1 %71, label %72, label %102

72:                                               ; preds = %67
  %73 = load ptr, ptr %7, align 8, !tbaa !59
  %74 = getelementptr inbounds nuw %struct.H5G_fh_ud_cmp_t, ptr %73, i32 0, i32 2
  %75 = load ptr, ptr %74, align 8, !tbaa !37
  %76 = load ptr, ptr %8, align 8, !tbaa !61
  %77 = load ptr, ptr %7, align 8, !tbaa !59
  %78 = getelementptr inbounds nuw %struct.H5G_fh_ud_cmp_t, ptr %77, i32 0, i32 3
  %79 = load ptr, ptr %78, align 8, !tbaa !39
  %80 = call i32 %75(ptr noundef %76, ptr noundef %79)
  %81 = icmp slt i32 %80, 0
  br i1 %81, label %82, label %101

82:                                               ; preds = %72
  br label %83

83:                                               ; preds = %82
  br label %84

84:                                               ; preds = %83
  br label %85

85:                                               ; preds = %84
  %86 = load i64, ptr @H5E_SYM_g, align 8, !tbaa !42
  %87 = load i64, ptr @H5E_CANTOPERATE_g, align 8, !tbaa !42
  %88 = call i32 (ptr, ptr, i32, i64, i64, ptr, ...) @H5E_printf_stack(ptr noundef @.str.2, ptr noundef @__func__.H5G__dense_fh_name_cmp, i32 noundef 159, i64 noundef %86, i64 noundef %87, ptr noundef @.str.5)
  br label %89

89:                                               ; preds = %85
  br label %90

90:                                               ; preds = %89
  store i8 1, ptr %10, align 1, !tbaa !11
  %91 = load i8, ptr %10, align 1, !tbaa !11, !range !13, !noundef !14
  %92 = trunc i8 %91 to i1
  %93 = zext i1 %92 to i8
  store i8 %93, ptr %10, align 1, !tbaa !11
  br label %94

94:                                               ; preds = %90
  br label %95

95:                                               ; preds = %94
  br label %96

96:                                               ; preds = %95
  store i32 -1, ptr %9, align 4, !tbaa !29
  br label %105

97:                                               ; No predecessors!
  br label %98

98:                                               ; preds = %97
  br label %99

99:                                               ; preds = %98
  br label %100

100:                                              ; preds = %99
  br label %101

101:                                              ; preds = %100, %72
  br label %102

102:                                              ; preds = %101, %67, %53
  %103 = load ptr, ptr %8, align 8, !tbaa !61
  %104 = call ptr @H5O_msg_free(i32 noundef 6, ptr noundef %103)
  br label %105

105:                                              ; preds = %102, %96, %48
  br label %106

106:                                              ; preds = %105, %18
  %107 = load i32, ptr %9, align 4, !tbaa !29
  call void @llvm.lifetime.end.p0(i64 1, ptr %10) #7
  call void @llvm.lifetime.end.p0(i64 4, ptr %9) #7
  call void @llvm.lifetime.end.p0(i64 8, ptr %8) #7
  call void @llvm.lifetime.end.p0(i64 8, ptr %7) #7
  ret i32 %107
}