; Function Attrs: nounwind uwtable
define internal range(i32 -1, 1) i32 @H5G__dense_fh_name_cmp(ptr noundef %0, i64 noundef %1, ptr noundef captures(none) %2) #1 {
  %4 = load i8, ptr @H5G_init_g, align 1, !tbaa !3, !range !7, !noundef !8
  %5 = trunc nuw i8 %4 to i1
  %6 = load i8, ptr @H5_libterm_g, align 1, !range !7
  %7 = trunc nuw i8 %6 to i1
  %8 = xor i1 %7, true
  %9 = select i1 %5, i1 true, i1 %8
  br i1 %9, label %10, label %40, !prof !9

10:                                               ; preds = %3
  %11 = load ptr, ptr %2, align 8, !tbaa !24
  %12 = tail call ptr @H5O_msg_decode(ptr noundef %11, ptr noundef null, i32 noundef 6, i64 noundef %1, ptr noundef %0) #10
  %13 = icmp eq ptr %12, null
  br i1 %13, label %14, label %18

14:                                               ; preds = %10
  %15 = load i64, ptr @H5E_SYM_g, align 8, !tbaa !34
  %16 = load i64, ptr @H5E_CANTDECODE_g, align 8, !tbaa !34
  %17 = tail call i32 (ptr, ptr, i32, i64, i64, ptr, ...) @H5E_printf_stack(ptr noundef nonnull @.str.2, ptr noundef nonnull @__func__.H5G__dense_fh_name_cmp, i32 noundef 151, i64 noundef %15, i64 noundef %16, ptr noundef nonnull @.str.4) #10
  br label %40

18:                                               ; preds = %10
  %19 = getelementptr inbounds nuw i8, ptr %2, i64 8
  %20 = load ptr, ptr %19, align 8, !tbaa !27
  %21 = getelementptr inbounds nuw i8, ptr %12, i64 24
  %22 = load ptr, ptr %21, align 8, !tbaa !47
  %23 = tail call i32 @strcmp(ptr noundef nonnull dereferenceable(1) %20, ptr noundef nonnull dereferenceable(1) %22) #12
  %24 = getelementptr inbounds nuw i8, ptr %2, i64 32
  store i32 %23, ptr %24, align 8, !tbaa !32
  %25 = icmp eq i32 %23, 0
  br i1 %25, label %26, label %38

26:                                               ; preds = %18
  %27 = getelementptr inbounds nuw i8, ptr %2, i64 16
  %28 = load ptr, ptr %27, align 8, !tbaa !29
  %.not = icmp eq ptr %28, null
  br i1 %.not, label %38, label %29

29:                                               ; preds = %26
  %30 = getelementptr inbounds nuw i8, ptr %2, i64 24
  %31 = load ptr, ptr %30, align 8, !tbaa !31
  %32 = tail call i32 %28(ptr noundef nonnull %12, ptr noundef %31) #10
  %33 = icmp slt i32 %32, 0
  br i1 %33, label %34, label %38

34:                                               ; preds = %29
  %35 = load i64, ptr @H5E_SYM_g, align 8, !tbaa !34
  %36 = load i64, ptr @H5E_CANTOPERATE_g, align 8, !tbaa !34
  %37 = tail call i32 (ptr, ptr, i32, i64, i64, ptr, ...) @H5E_printf_stack(ptr noundef nonnull @.str.2, ptr noundef nonnull @__func__.H5G__dense_fh_name_cmp, i32 noundef 159, i64 noundef %35, i64 noundef %36, ptr noundef nonnull @.str.5) #10
  br label %40

38:                                               ; preds = %29, %26, %18
  %39 = tail call ptr @H5O_msg_free(i32 noundef 6, ptr noundef nonnull %12) #10
  br label %40

40:                                               ; preds = %14, %34, %38, %3
  %.0 = phi i32 [ -1, %14 ], [ -1, %34 ], [ 0, %38 ], [ 0, %3 ]
  ret i32 %.0
}